; ModuleID = 'source-C-CXX/7/1220.c'
source_filename = "source-C-CXX/7/1220.c"
target datalayout = "e-m:e-p270:32:32-p271:32:32-p272:64:64-i64:64-f80:128-n8:16:32:64-S128"
target triple = "x86_64-pc-linux-gnu"

@.str = private unnamed_addr constant [5 x i8] c"%d%d\00", align 1
@m = dso_local global i32 0, align 4
@n = dso_local global i32 0, align 4
@p = dso_local local_unnamed_addr global i32* null, align 8
@q = dso_local local_unnamed_addr global i32* null, align 8
@.str.1 = private unnamed_addr constant [3 x i8] c"%d\00", align 1
@.str.2 = private unnamed_addr constant [4 x i8] c"%d \00", align 1

; Function Attrs: nofree nounwind sspstrong uwtable
define dso_local void @shuru() local_unnamed_addr #0 {
  %1 = tail call i32 (i8*, ...) @__isoc99_scanf(i8* getelementptr inbounds ([5 x i8], [5 x i8]* @.str, i64 0, i64 0), i32* nonnull @m, i32* nonnull @n)
  %2 = load i32, i32* @m, align 4, !tbaa !5
  %3 = sext i32 %2 to i64
  %4 = shl nsw i64 %3, 2
  %5 = tail call noalias align 16 i8* @malloc(i64 %4) #5
  store i8* %5, i8** bitcast (i32** @p to i8**), align 8, !tbaa !9
  %6 = load i32, i32* @n, align 4, !tbaa !5
  %7 = sext i32 %6 to i64
  %8 = shl nsw i64 %7, 2
  %9 = tail call noalias align 16 i8* @malloc(i64 %8) #5
  store i8* %9, i8** bitcast (i32** @q to i8**), align 8, !tbaa !9
  %10 = icmp sgt i32 %2, 0
  br i1 %10, label %11, label %17

11:                                               ; preds = %0
  %12 = tail call i32 (i8*, ...) @__isoc99_scanf(i8* getelementptr inbounds ([3 x i8], [3 x i8]* @.str.1, i64 0, i64 0), i8* %5)
  %13 = load i32, i32* @m, align 4, !tbaa !5
  %14 = icmp sgt i32 %13, 1
  br i1 %14, label %20, label %15, !llvm.loop !11

15:                                               ; preds = %20, %11
  %16 = load i32, i32* @n, align 4, !tbaa !5
  br label %17

17:                                               ; preds = %15, %0
  %18 = phi i32 [ %16, %15 ], [ %6, %0 ]
  %19 = icmp sgt i32 %18, 0
  br i1 %19, label %30, label %29

20:                                               ; preds = %11, %20
  %21 = phi i64 [ %25, %20 ], [ 1, %11 ]
  %22 = load i32*, i32** @p, align 8, !tbaa !9
  %23 = getelementptr inbounds i32, i32* %22, i64 %21
  %24 = tail call i32 (i8*, ...) @__isoc99_scanf(i8* getelementptr inbounds ([3 x i8], [3 x i8]* @.str.1, i64 0, i64 0), i32* nonnull %23)
  %25 = add nuw nsw i64 %21, 1
  %26 = load i32, i32* @m, align 4, !tbaa !5
  %27 = sext i32 %26 to i64
  %28 = icmp slt i64 %25, %27
  br i1 %28, label %20, label %15, !llvm.loop !11

29:                                               ; preds = %30, %17
  ret void

30:                                               ; preds = %17, %30
  %31 = phi i64 [ %35, %30 ], [ 0, %17 ]
  %32 = load i32*, i32** @q, align 8, !tbaa !9
  %33 = getelementptr inbounds i32, i32* %32, i64 %31
  %34 = tail call i32 (i8*, ...) @__isoc99_scanf(i8* getelementptr inbounds ([3 x i8], [3 x i8]* @.str.1, i64 0, i64 0), i32* %33)
  %35 = add nuw nsw i64 %31, 1
  %36 = load i32, i32* @n, align 4, !tbaa !5
  %37 = sext i32 %36 to i64
  %38 = icmp slt i64 %35, %37
  br i1 %38, label %30, label %29, !llvm.loop !13
}

; Function Attrs: nofree nounwind
declare noundef i32 @__isoc99_scanf(i8* nocapture noundef readonly, ...) local_unnamed_addr #1

; Function Attrs: inaccessiblememonly mustprogress nofree nounwind willreturn
declare noalias noundef align 16 i8* @malloc(i64 noundef) local_unnamed_addr #2

; Function Attrs: nofree nounwind sspstrong uwtable
define dso_local void @shuchu() local_unnamed_addr #0 {
  %1 = load i32, i32* @m, align 4, !tbaa !5
  %2 = icmp sgt i32 %1, 0
  br i1 %2, label %6, label %3

3:                                                ; preds = %6, %0
  %4 = load i32, i32* @n, align 4, !tbaa !5
  %5 = icmp sgt i32 %4, 1
  br i1 %5, label %24, label %16

6:                                                ; preds = %0, %6
  %7 = phi i64 [ %12, %6 ], [ 0, %0 ]
  %8 = load i32*, i32** @p, align 8, !tbaa !9
  %9 = getelementptr inbounds i32, i32* %8, i64 %7
  %10 = load i32, i32* %9, align 4, !tbaa !5
  %11 = tail call i32 (i8*, ...) @printf(i8* nonnull dereferenceable(1) getelementptr inbounds ([4 x i8], [4 x i8]* @.str.2, i64 0, i64 0), i32 %10)
  %12 = add nuw nsw i64 %7, 1
  %13 = load i32, i32* @m, align 4, !tbaa !5
  %14 = sext i32 %13 to i64
  %15 = icmp slt i64 %12, %14
  br i1 %15, label %6, label %3, !llvm.loop !14

16:                                               ; preds = %24, %3
  %17 = phi i32 [ %4, %3 ], [ %31, %24 ]
  %18 = load i32*, i32** @q, align 8, !tbaa !9
  %19 = sext i32 %17 to i64
  %20 = add nsw i64 %19, -1
  %21 = getelementptr inbounds i32, i32* %18, i64 %20
  %22 = load i32, i32* %21, align 4, !tbaa !5
  %23 = tail call i32 (i8*, ...) @printf(i8* nonnull dereferenceable(1) getelementptr inbounds ([3 x i8], [3 x i8]* @.str.1, i64 0, i64 0), i32 %22)
  ret void

24:                                               ; preds = %3, %24
  %25 = phi i64 [ %30, %24 ], [ 0, %3 ]
  %26 = load i32*, i32** @q, align 8, !tbaa !9
  %27 = getelementptr inbounds i32, i32* %26, i64 %25
  %28 = load i32, i32* %27, align 4, !tbaa !5
  %29 = tail call i32 (i8*, ...) @printf(i8* nonnull dereferenceable(1) getelementptr inbounds ([4 x i8], [4 x i8]* @.str.2, i64 0, i64 0), i32 %28)
  %30 = add nuw nsw i64 %25, 1
  %31 = load i32, i32* @n, align 4, !tbaa !5
  %32 = add nsw i32 %31, -1
  %33 = sext i32 %32 to i64
  %34 = icmp slt i64 %30, %33
  br i1 %34, label %24, label %16, !llvm.loop !15
}

; Function Attrs: nofree nounwind
declare noundef i32 @printf(i8* nocapture noundef readonly, ...) local_unnamed_addr #1

; Function Attrs: nofree nounwind sspstrong uwtable
define dso_local i32 @main() local_unnamed_addr #0 {
  tail call void @shuru()
  %1 = load i8*, i8** bitcast (i32** @p to i8**), align 8, !tbaa !9
  %2 = load i32, i32* @m, align 4, !tbaa !5
  %3 = sext i32 %2 to i64
  tail call void @qsort(i8* %1, i64 %3, i64 4, i32 (i8*, i8*)* nonnull @cmp) #5
  %4 = load i8*, i8** bitcast (i32** @q to i8**), align 8, !tbaa !9
  %5 = load i32, i32* @n, align 4, !tbaa !5
  %6 = sext i32 %5 to i64
  tail call void @qsort(i8* %4, i64 %6, i64 4, i32 (i8*, i8*)* nonnull @cmp) #5
  %7 = load i32, i32* @m, align 4, !tbaa !5
  %8 = icmp sgt i32 %7, 0
  br i1 %8, label %12, label %9

9:                                                ; preds = %12, %0
  %10 = load i32, i32* @n, align 4, !tbaa !5
  %11 = icmp sgt i32 %10, 1
  br i1 %11, label %22, label %33

12:                                               ; preds = %0, %12
  %13 = phi i64 [ %18, %12 ], [ 0, %0 ]
  %14 = load i32*, i32** @p, align 8, !tbaa !9
  %15 = getelementptr inbounds i32, i32* %14, i64 %13
  %16 = load i32, i32* %15, align 4, !tbaa !5
  %17 = tail call i32 (i8*, ...) @printf(i8* nonnull dereferenceable(1) getelementptr inbounds ([4 x i8], [4 x i8]* @.str.2, i64 0, i64 0), i32 %16) #5
  %18 = add nuw nsw i64 %13, 1
  %19 = load i32, i32* @m, align 4, !tbaa !5
  %20 = sext i32 %19 to i64
  %21 = icmp slt i64 %18, %20
  br i1 %21, label %12, label %9, !llvm.loop !14

22:                                               ; preds = %9, %22
  %23 = phi i64 [ %28, %22 ], [ 0, %9 ]
  %24 = load i32*, i32** @q, align 8, !tbaa !9
  %25 = getelementptr inbounds i32, i32* %24, i64 %23
  %26 = load i32, i32* %25, align 4, !tbaa !5
  %27 = tail call i32 (i8*, ...) @printf(i8* nonnull dereferenceable(1) getelementptr inbounds ([4 x i8], [4 x i8]* @.str.2, i64 0, i64 0), i32 %26) #5
  %28 = add nuw nsw i64 %23, 1
  %29 = load i32, i32* @n, align 4, !tbaa !5
  %30 = add nsw i32 %29, -1
  %31 = sext i32 %30 to i64
  %32 = icmp slt i64 %28, %31
  br i1 %32, label %22, label %33, !llvm.loop !15

33:                                               ; preds = %22, %9
  %34 = phi i32 [ %10, %9 ], [ %29, %22 ]
  %35 = load i32*, i32** @q, align 8, !tbaa !9
  %36 = sext i32 %34 to i64
  %37 = add nsw i64 %36, -1
  %38 = getelementptr inbounds i32, i32* %35, i64 %37
  %39 = load i32, i32* %38, align 4, !tbaa !5
  %40 = tail call i32 (i8*, ...) @printf(i8* nonnull dereferenceable(1) getelementptr inbounds ([3 x i8], [3 x i8]* @.str.1, i64 0, i64 0), i32 %39) #5
  ret i32 0
}

; Function Attrs: nofree
declare void @qsort(i8* noundef, i64 noundef, i64 noundef, i32 (i8*, i8*)* nocapture noundef) local_unnamed_addr #3

; Function Attrs: mustprogress nofree norecurse nosync nounwind readonly sspstrong uwtable willreturn
define internal i32 @cmp(i8* nocapture readonly %0, i8* nocapture readonly %1) #4 {
  %3 = bitcast i8* %0 to i32*
  %4 = load i32, i32* %3, align 4, !tbaa !5
  %5 = bitcast i8* %1 to i32*
  %6 = load i32, i32* %5, align 4, !tbaa !5
  %7 = sub nsw i32 %4, %6
  ret i32 %7
}


!llvm.module.flags = !{!0, !1, !2, !3}
!llvm.ident = !{!4}

!0 = !{i32 1, !"wchar_size", i32 4}
!1 = !{i32 7, !"PIC Level", i32 2}
!2 = !{i32 7, !"PIE Level", i32 2}
!3 = !{i32 7, !"uwtable", i32 1}
!4 = !{!"clang version 13.0.0"}
!5 = !{!6, !6, i64 0}
!6 = !{!"int", !7, i64 0}
!7 = !{!"omnipotent char", !8, i64 0}
!8 = !{!"Simple C/C++ TBAA"}
!9 = !{!10, !10, i64 0}
!10 = !{!"any pointer", !7, i64 0}
!11 = distinct !{!11, !12}
!12 = !{!"llvm.loop.mustprogress"}
!13 = distinct !{!13, !12}
!14 = distinct !{!14, !12}
!15 = distinct !{!15, !12}
